target datalayout = "e-m:e-p270:32:32-p271:32:32-p272:64:64-i64:64-i128:128-f80:128-n8:16:32:64-S128"
target triple = "x86_64-pc-linux-gnu"

%"struct.metaspace::InUseChunkStats" = type { i32, i64, i64, i64, i64, i64 }
%class.outputStream = type { ptr, i32, i8, i32, i64, %class.TimeStamp, ptr, i64 }
%class.TimeStamp = type { i64 }
%"struct.metaspace::ArenaStats" = type { [15 x %"struct.metaspace::InUseChunkStats"], i64, i64 }
%class.streamIndentor = type <{ ptr, i32, [4 x i8] }>

@.str.17 = private unnamed_addr constant [22 x i8] c"Usage by chunk level:\00", align 1
@.str.18 = private unnamed_addr constant [10 x i8] c" chunks: \00", align 1
@.str.19 = private unnamed_addr constant [8 x i8] c" (none)\00", align 1
@.str.20 = private unnamed_addr constant [7 x i8] c"%15s: \00", align 1
@.str.21 = private unnamed_addr constant [8 x i8] c"-total-\00", align 1
@.str.22 = private unnamed_addr constant [30 x i8] c"deallocated: %lu blocks with \00", align 1
@.str.23 = private unnamed_addr constant [3 x i8] c", \00", align 1

; Function Attrs: mustprogress nounwind uwtable
define linkonce_odr hidden void @_ZN12outputStream3decEi(ptr noundef nonnull align 8 dereferenceable(56) %0, i32 noundef %1) #1 comdat align 2 {
  %3 = alloca ptr, align 8
  %4 = alloca i32, align 4
  store ptr %0, ptr %3, align 8
  store i32 %1, ptr %4, align 4
  %5 = load ptr, ptr %3, align 8
  %6 = load i32, ptr %4, align 4
  %7 = getelementptr inbounds %class.outputStream, ptr %5, i32 0, i32 1
  %8 = load i32, ptr %7, align 8
  %9 = sub nsw i32 %8, %6
  store i32 %9, ptr %7, align 8
  ret void
}

; Function Attrs: mustprogress nounwind uwtable
define linkonce_odr hidden void @_ZN9metaspace15InUseChunkStats3addERKS0_(ptr noundef nonnull align 8 dereferenceable(48) %0, ptr noundef nonnull align 8 dereferenceable(48) %1) #1 comdat align 2 {
  %3 = alloca ptr, align 8
  %4 = alloca ptr, align 8
  store ptr %0, ptr %3, align 8
  store ptr %1, ptr %4, align 8
  %5 = load ptr, ptr %3, align 8
  %6 = load ptr, ptr %4, align 8
  %7 = getelementptr inbounds %"struct.metaspace::InUseChunkStats", ptr %6, i32 0, i32 0
  %8 = load i32, ptr %7, align 8
  %9 = getelementptr inbounds %"struct.metaspace::InUseChunkStats", ptr %5, i32 0, i32 0
  %10 = load i32, ptr %9, align 8
  %11 = add nsw i32 %10, %8
  store i32 %11, ptr %9, align 8
  %12 = load ptr, ptr %4, align 8
  %13 = getelementptr inbounds %"struct.metaspace::InUseChunkStats", ptr %12, i32 0, i32 1
  %14 = load i64, ptr %13, align 8
  %15 = getelementptr inbounds %"struct.metaspace::InUseChunkStats", ptr %5, i32 0, i32 1
  %16 = load i64, ptr %15, align 8
  %17 = add i64 %16, %14
  store i64 %17, ptr %15, align 8
  %18 = load ptr, ptr %4, align 8
  %19 = getelementptr inbounds %"struct.metaspace::InUseChunkStats", ptr %18, i32 0, i32 2
  %20 = load i64, ptr %19, align 8
  %21 = getelementptr inbounds %"struct.metaspace::InUseChunkStats", ptr %5, i32 0, i32 2
  %22 = load i64, ptr %21, align 8
  %23 = add i64 %22, %20
  store i64 %23, ptr %21, align 8
  %24 = load ptr, ptr %4, align 8
  %25 = getelementptr inbounds %"struct.metaspace::InUseChunkStats", ptr %24, i32 0, i32 3
  %26 = load i64, ptr %25, align 8
  %27 = getelementptr inbounds %"struct.metaspace::InUseChunkStats", ptr %5, i32 0, i32 3
  %28 = load i64, ptr %27, align 8
  %29 = add i64 %28, %26
  store i64 %29, ptr %27, align 8
  %30 = load ptr, ptr %4, align 8
  %31 = getelementptr inbounds %"struct.metaspace::InUseChunkStats", ptr %30, i32 0, i32 4
  %32 = load i64, ptr %31, align 8
  %33 = getelementptr inbounds %"struct.metaspace::InUseChunkStats", ptr %5, i32 0, i32 4
  %34 = load i64, ptr %33, align 8
  %35 = add i64 %34, %32
  store i64 %35, ptr %33, align 8
  %36 = load ptr, ptr %4, align 8
  %37 = getelementptr inbounds %"struct.metaspace::InUseChunkStats", ptr %36, i32 0, i32 5
  %38 = load i64, ptr %37, align 8
  %39 = getelementptr inbounds %"struct.metaspace::InUseChunkStats", ptr %5, i32 0, i32 5
  %40 = load i64, ptr %39, align 8
  %41 = add i64 %40, %38
  store i64 %41, ptr %39, align 8
  ret void
}

; Function Attrs: mustprogress nounwind uwtable
define linkonce_odr hidden void @_ZN9metaspace15InUseChunkStatsC2Ev(ptr noundef nonnull align 8 dereferenceable(48) %0) unnamed_addr #1 comdat align 2 {
  %2 = alloca ptr, align 8
  store ptr %0, ptr %2, align 8
  %3 = load ptr, ptr %2, align 8
  %4 = getelementptr inbounds %"struct.metaspace::InUseChunkStats", ptr %3, i32 0, i32 0
  store i32 0, ptr %4, align 8
  %5 = getelementptr inbounds %"struct.metaspace::InUseChunkStats", ptr %3, i32 0, i32 1
  store i64 0, ptr %5, align 8
  %6 = getelementptr inbounds %"struct.metaspace::InUseChunkStats", ptr %3, i32 0, i32 2
  store i64 0, ptr %6, align 8
  %7 = getelementptr inbounds %"struct.metaspace::InUseChunkStats", ptr %3, i32 0, i32 3
  store i64 0, ptr %7, align 8
  %8 = getelementptr inbounds %"struct.metaspace::InUseChunkStats", ptr %3, i32 0, i32 4
  store i64 0, ptr %8, align 8
  %9 = getelementptr inbounds %"struct.metaspace::InUseChunkStats", ptr %3, i32 0, i32 5
  store i64 0, ptr %9, align 8
  ret void
}

; Function Attrs: mustprogress nounwind uwtable
define linkonce_odr hidden void @_ZN12outputStream3incEi(ptr noundef nonnull align 8 dereferenceable(56) %0, i32 noundef %1) #1 comdat align 2 {
  %3 = alloca ptr, align 8
  %4 = alloca i32, align 4
  store ptr %0, ptr %3, align 8
  store i32 %1, ptr %4, align 4
  %5 = load ptr, ptr %3, align 8
  %6 = load i32, ptr %4, align 4
  %7 = getelementptr inbounds %class.outputStream, ptr %5, i32 0, i32 1
  %8 = load i32, ptr %7, align 8
  %9 = add nsw i32 %8, %6
  store i32 %9, ptr %7, align 8
  ret void
}

; Function Attrs: mustprogress nounwind uwtable
define linkonce_odr hidden void @_ZN14streamIndentorD2Ev(ptr noundef nonnull align 8 dereferenceable(12) %0) unnamed_addr #1 comdat align 2 {
  %2 = alloca ptr, align 8
  store ptr %0, ptr %2, align 8
  %3 = load ptr, ptr %2, align 8
  %4 = getelementptr inbounds %class.streamIndentor, ptr %3, i32 0, i32 0
  %5 = load ptr, ptr %4, align 8
  %6 = getelementptr inbounds %class.streamIndentor, ptr %3, i32 0, i32 1
  %7 = load i32, ptr %6, align 8
  call void @_ZN12outputStream3decEi(ptr noundef nonnull align 8 dereferenceable(56) %5, i32 noundef %7)
  ret void
}

; Function Attrs: mustprogress nounwind uwtable
define hidden void @_ZNK9metaspace10ArenaStats6totalsEv(ptr dead_on_unwind noalias writable sret(%"struct.metaspace::InUseChunkStats") align 8 %0, ptr noundef nonnull align 8 dereferenceable(736) %1) #1 align 2 {
  %3 = alloca ptr, align 8
  %4 = alloca i8, align 1
  store ptr %1, ptr %3, align 8
  %5 = load ptr, ptr %3, align 8
  call void @_ZN9metaspace15InUseChunkStatsC2Ev(ptr noundef nonnull align 8 dereferenceable(48) %0)
  store i8 0, ptr %4, align 1
  br label %6

6:                                                ; preds = %15, %2
  %7 = load i8, ptr %4, align 1
  %8 = sext i8 %7 to i32
  %9 = icmp sle i32 %8, 14
  br i1 %9, label %10, label %18

10:                                               ; preds = %6
  %11 = getelementptr inbounds %"struct.metaspace::ArenaStats", ptr %5, i32 0, i32 0
  %12 = load i8, ptr %4, align 1
  %13 = sext i8 %12 to i64
  %14 = getelementptr inbounds [15 x %"struct.metaspace::InUseChunkStats"], ptr %11, i64 0, i64 %13
  call void @_ZN9metaspace15InUseChunkStats3addERKS0_(ptr noundef nonnull align 8 dereferenceable(48) %0, ptr noundef nonnull align 8 dereferenceable(48) %14)
  br label %15

15:                                               ; preds = %10
  %16 = load i8, ptr %4, align 1
  %17 = add i8 %16, 1
  store i8 %17, ptr %4, align 1
  br label %6, !llvm.loop !12

18:                                               ; preds = %6
  ret void
}

; Function Attrs: mustprogress nounwind uwtable
define linkonce_odr hidden void @_ZN14streamIndentorC2EP12outputStreami(ptr noundef nonnull align 8 dereferenceable(12) %0, ptr noundef %1, i32 noundef %2) unnamed_addr #1 comdat align 2 {
  %4 = alloca ptr, align 8
  %5 = alloca ptr, align 8
  %6 = alloca i32, align 4
  store ptr %0, ptr %4, align 8
  store ptr %1, ptr %5, align 8
  store i32 %2, ptr %6, align 4
  %7 = load ptr, ptr %4, align 8
  %8 = getelementptr inbounds %class.streamIndentor, ptr %7, i32 0, i32 0
  %9 = load ptr, ptr %5, align 8
  store ptr %9, ptr %8, align 8
  %10 = getelementptr inbounds %class.streamIndentor, ptr %7, i32 0, i32 1
  %11 = load i32, ptr %6, align 4
  store i32 %11, ptr %10, align 8
  %12 = getelementptr inbounds %class.streamIndentor, ptr %7, i32 0, i32 0
  %13 = load ptr, ptr %12, align 8
  %14 = getelementptr inbounds %class.streamIndentor, ptr %7, i32 0, i32 1
  %15 = load i32, ptr %14, align 8
  call void @_ZN12outputStream3incEi(ptr noundef nonnull align 8 dereferenceable(56) %13, i32 noundef %15)
  ret void
}

; Function Attrs: mustprogress nounwind uwtable
define hidden void @_ZNK9metaspace10ArenaStats8print_onEP12outputStreammb(ptr noundef nonnull align 8 dereferenceable(736) %0, ptr noundef %1, i64 noundef %2, i1 noundef zeroext %3) #1 align 2 {
  %5 = alloca ptr, align 8
  %6 = alloca ptr, align 8
  %7 = alloca i64, align 8
  %8 = alloca i8, align 1
  %9 = alloca %class.streamIndentor, align 8
  %10 = alloca %class.streamIndentor, align 8
  %11 = alloca i8, align 1
  %12 = alloca %"struct.metaspace::InUseChunkStats", align 8
  %13 = alloca %"struct.metaspace::InUseChunkStats", align 8
  store ptr %0, ptr %5, align 8
  store ptr %1, ptr %6, align 8
  store i64 %2, ptr %7, align 8
  %14 = zext i1 %3 to i8
  store i8 %14, ptr %8, align 1
  %15 = load ptr, ptr %5, align 8
  %16 = load ptr, ptr %6, align 8
  call void @_ZN14streamIndentorC2EP12outputStreami(ptr noundef nonnull align 8 dereferenceable(12) %9, ptr noundef %16, i32 noundef 2)
  %17 = load i8, ptr %8, align 1
  %18 = trunc i8 %17 to i1
  br i1 %18, label %19, label %70

19:                                               ; preds = %4
  %20 = load ptr, ptr %6, align 8
  call void @_ZN12outputStream9cr_indentEv(ptr noundef nonnull align 8 dereferenceable(56) %20)
  %21 = load ptr, ptr %6, align 8
  call void (ptr, ptr, ...) @_ZN12outputStream5printEPKcz(ptr noundef nonnull align 8 dereferenceable(56) %21, ptr noundef @.str.17)
  %22 = load ptr, ptr %6, align 8
  call void @_ZN14streamIndentorC2EP12outputStreami(ptr noundef nonnull align 8 dereferenceable(12) %10, ptr noundef %22, i32 noundef 2)
  store i8 0, ptr %11, align 1
  br label %23

23:                                               ; preds = %49, %19
  %24 = load i8, ptr %11, align 1
  %25 = sext i8 %24 to i32
  %26 = icmp sle i32 %25, 14
  br i1 %26, label %27, label %52

27:                                               ; preds = %23
  %28 = load ptr, ptr %6, align 8
  call void @_ZN12outputStream9cr_indentEv(ptr noundef nonnull align 8 dereferenceable(56) %28)
  %29 = load ptr, ptr %6, align 8
  %30 = load i8, ptr %11, align 1
  call void @_ZN9metaspace10chunklevel16print_chunk_sizeEP12outputStreama(ptr noundef %29, i8 noundef signext %30)
  %31 = load ptr, ptr %6, align 8
  call void (ptr, ptr, ...) @_ZN12outputStream5printEPKcz(ptr noundef nonnull align 8 dereferenceable(56) %31, ptr noundef @.str.18)
  %32 = getelementptr inbounds %"struct.metaspace::ArenaStats", ptr %15, i32 0, i32 0
  %33 = load i8, ptr %11, align 1
  %34 = sext i8 %33 to i64
  %35 = getelementptr inbounds [15 x %"struct.metaspace::InUseChunkStats"], ptr %32, i64 0, i64 %34
  %36 = getelementptr inbounds %"struct.metaspace::InUseChunkStats", ptr %35, i32 0, i32 0
  %37 = load i32, ptr %36, align 8
  %38 = icmp eq i32 %37, 0
  br i1 %38, label %39, label %41

39:                                               ; preds = %27
  %40 = load ptr, ptr %6, align 8
  call void (ptr, ptr, ...) @_ZN12outputStream5printEPKcz(ptr noundef nonnull align 8 dereferenceable(56) %40, ptr noundef @.str.19)
  br label %48

41:                                               ; preds = %27
  %42 = getelementptr inbounds %"struct.metaspace::ArenaStats", ptr %15, i32 0, i32 0
  %43 = load i8, ptr %11, align 1
  %44 = sext i8 %43 to i64
  %45 = getelementptr inbounds [15 x %"struct.metaspace::InUseChunkStats"], ptr %42, i64 0, i64 %44
  %46 = load ptr, ptr %6, align 8
  %47 = load i64, ptr %7, align 8
  call void @_ZNK9metaspace15InUseChunkStats8print_onEP12outputStreamm(ptr noundef nonnull align 8 dereferenceable(48) %45, ptr noundef %46, i64 noundef %47)
  br label %48

48:                                               ; preds = %41, %39
  br label %49

49:                                               ; preds = %48
  %50 = load i8, ptr %11, align 1
  %51 = add i8 %50, 1
  store i8 %51, ptr %11, align 1
  br label %23, !llvm.loop !13

52:                                               ; preds = %23
  %53 = load ptr, ptr %6, align 8
  call void @_ZN12outputStream9cr_indentEv(ptr noundef nonnull align 8 dereferenceable(56) %53)
  %54 = load ptr, ptr %6, align 8
  call void (ptr, ptr, ...) @_ZN12outputStream5printEPKcz(ptr noundef nonnull align 8 dereferenceable(56) %54, ptr noundef @.str.20, ptr noundef @.str.21)
  call void @_ZNK9metaspace10ArenaStats6totalsEv(ptr dead_on_unwind writable sret(%"struct.metaspace::InUseChunkStats") align 8 %12, ptr noundef nonnull align 8 dereferenceable(736) %15)
  %55 = load ptr, ptr %6, align 8
  %56 = load i64, ptr %7, align 8
  call void @_ZNK9metaspace15InUseChunkStats8print_onEP12outputStreamm(ptr noundef nonnull align 8 dereferenceable(48) %12, ptr noundef %55, i64 noundef %56)
  call void @_ZN14streamIndentorD2Ev(ptr noundef nonnull align 8 dereferenceable(12) %10) #3
  %57 = getelementptr inbounds %"struct.metaspace::ArenaStats", ptr %15, i32 0, i32 1
  %58 = load i64, ptr %57, align 8
  %59 = icmp ugt i64 %58, 0
  br i1 %59, label %60, label %69

60:                                               ; preds = %52
  %61 = load ptr, ptr %6, align 8
  call void @_ZN12outputStream9cr_indentEv(ptr noundef nonnull align 8 dereferenceable(56) %61)
  %62 = load ptr, ptr %6, align 8
  %63 = getelementptr inbounds %"struct.metaspace::ArenaStats", ptr %15, i32 0, i32 1
  %64 = load i64, ptr %63, align 8
  call void (ptr, ptr, ...) @_ZN12outputStream5printEPKcz(ptr noundef nonnull align 8 dereferenceable(56) %62, ptr noundef @.str.22, i64 noundef %64)
  %65 = load ptr, ptr %6, align 8
  %66 = getelementptr inbounds %"struct.metaspace::ArenaStats", ptr %15, i32 0, i32 2
  %67 = load i64, ptr %66, align 8
  %68 = load i64, ptr %7, align 8
  call void @_ZN9metaspace18print_scaled_wordsEP12outputStreammmi(ptr noundef %65, i64 noundef %67, i64 noundef %68, i32 noundef -1)
  br label %69

69:                                               ; preds = %60, %52
  br label %81

70:                                               ; preds = %4
  call void @_ZNK9metaspace10ArenaStats6totalsEv(ptr dead_on_unwind writable sret(%"struct.metaspace::InUseChunkStats") align 8 %13, ptr noundef nonnull align 8 dereferenceable(736) %15)
  %71 = load ptr, ptr %6, align 8
  %72 = load i64, ptr %7, align 8
  call void @_ZNK9metaspace15InUseChunkStats8print_onEP12outputStreamm(ptr noundef nonnull align 8 dereferenceable(48) %13, ptr noundef %71, i64 noundef %72)
  %73 = load ptr, ptr %6, align 8
  call void (ptr, ptr, ...) @_ZN12outputStream5printEPKcz(ptr noundef nonnull align 8 dereferenceable(56) %73, ptr noundef @.str.23)
  %74 = load ptr, ptr %6, align 8
  %75 = getelementptr inbounds %"struct.metaspace::ArenaStats", ptr %15, i32 0, i32 1
  %76 = load i64, ptr %75, align 8
  call void (ptr, ptr, ...) @_ZN12outputStream5printEPKcz(ptr noundef nonnull align 8 dereferenceable(56) %74, ptr noundef @.str.22, i64 noundef %76)
  %77 = load ptr, ptr %6, align 8
  %78 = getelementptr inbounds %"struct.metaspace::ArenaStats", ptr %15, i32 0, i32 2
  %79 = load i64, ptr %78, align 8
  %80 = load i64, ptr %7, align 8
  call void @_ZN9metaspace18print_scaled_wordsEP12outputStreammmi(ptr noundef %77, i64 noundef %79, i64 noundef %80, i32 noundef -1)
  br label %81

81:                                               ; preds = %70, %69
  call void @_ZN14streamIndentorD2Ev(ptr noundef nonnull align 8 dereferenceable(12) %9) #3
  ret void
}