; Function Attrs: mustprogress nounwind uwtable
define hidden void @_ZNK9metaspace10ArenaStats8print_onEP12outputStreammb(ptr nocapture noundef nonnull readonly align 8 dereferenceable(736) %0, ptr noundef %1, i64 noundef %2, i1 noundef zeroext %3) local_unnamed_addr #2 align 2 {
  %5 = alloca %"struct.metaspace::InUseChunkStats", align 8
  %6 = alloca %"struct.metaspace::InUseChunkStats", align 8
  %7 = getelementptr inbounds i8, ptr %1, i64 8
  %8 = load i32, ptr %7, align 8
  %9 = add nsw i32 %8, 2
  store i32 %9, ptr %7, align 8
  br i1 %3, label %10, label %47

10:                                               ; preds = %4
  tail call void @_ZN12outputStream9cr_indentEv(ptr noundef nonnull align 8 dereferenceable(56) %1) #6
  tail call void (ptr, ptr, ...) @_ZN12outputStream5printEPKcz(ptr noundef nonnull align 8 dereferenceable(56) %1, ptr noundef nonnull @.str.17) #6
  %11 = load i32, ptr %7, align 8
  %12 = add nsw i32 %11, 2
  store i32 %12, ptr %7, align 8
  br label %13

13:                                               ; preds = %10, %20
  %indvars.iv = phi i64 [ 0, %10 ], [ %indvars.iv.next, %20 ]
  tail call void @_ZN12outputStream9cr_indentEv(ptr noundef nonnull align 8 dereferenceable(56) %1) #6
  %14 = trunc nuw nsw i64 %indvars.iv to i8
  tail call void @_ZN9metaspace10chunklevel16print_chunk_sizeEP12outputStreama(ptr noundef nonnull %1, i8 noundef signext %14) #6
  tail call void (ptr, ptr, ...) @_ZN12outputStream5printEPKcz(ptr noundef nonnull align 8 dereferenceable(56) %1, ptr noundef nonnull @.str.18) #6
  %15 = getelementptr inbounds [15 x %"struct.metaspace::InUseChunkStats"], ptr %0, i64 0, i64 %indvars.iv
  %16 = load i32, ptr %15, align 8
  %17 = icmp eq i32 %16, 0
  br i1 %17, label %18, label %19

18:                                               ; preds = %13
  tail call void (ptr, ptr, ...) @_ZN12outputStream5printEPKcz(ptr noundef nonnull align 8 dereferenceable(56) %1, ptr noundef nonnull @.str.19) #6
  br label %20

19:                                               ; preds = %13
  tail call void @_ZNK9metaspace15InUseChunkStats8print_onEP12outputStreamm(ptr noundef nonnull align 8 dereferenceable(48) %15, ptr noundef nonnull %1, i64 noundef %2)
  br label %20

20:                                               ; preds = %18, %19
  %indvars.iv.next = add nuw nsw i64 %indvars.iv, 1
  %exitcond.not = icmp eq i64 %indvars.iv.next, 15
  br i1 %exitcond.not, label %21, label %13, !llvm.loop !13

21:                                               ; preds = %20
  tail call void @_ZN12outputStream9cr_indentEv(ptr noundef nonnull align 8 dereferenceable(56) %1) #6
  tail call void (ptr, ptr, ...) @_ZN12outputStream5printEPKcz(ptr noundef nonnull align 8 dereferenceable(56) %1, ptr noundef nonnull @.str.20, ptr noundef nonnull @.str.21) #6
  tail call void @llvm.experimental.noalias.scope.decl(metadata !14)
  br label %22

22:                                               ; preds = %22, %21
  %indvars.iv.i = phi i64 [ 0, %21 ], [ %indvars.iv.next.i, %22 ]
  %23 = phi i32 [ 0, %21 ], [ %29, %22 ]
  %24 = phi i64 [ 0, %21 ], [ %38, %22 ]
  %25 = phi <2 x i64> [ zeroinitializer, %21 ], [ %32, %22 ]
  %26 = phi <2 x i64> [ zeroinitializer, %21 ], [ %35, %22 ]
  %27 = getelementptr inbounds [15 x %"struct.metaspace::InUseChunkStats"], ptr %0, i64 0, i64 %indvars.iv.i
  %28 = load i32, ptr %27, align 8, !noalias !14
  %29 = add nsw i32 %28, %23
  %30 = getelementptr inbounds i8, ptr %27, i64 8
  %31 = load <2 x i64>, ptr %30, align 8, !noalias !14
  %32 = add <2 x i64> %31, %25
  %33 = getelementptr inbounds i8, ptr %27, i64 24
  %34 = load <2 x i64>, ptr %33, align 8, !noalias !14
  %35 = add <2 x i64> %34, %26
  %36 = getelementptr inbounds i8, ptr %27, i64 40
  %37 = load i64, ptr %36, align 8, !noalias !14
  %38 = add i64 %37, %24
  %indvars.iv.next.i = add nuw nsw i64 %indvars.iv.i, 1
  %exitcond.not.i = icmp eq i64 %indvars.iv.next.i, 15
  br i1 %exitcond.not.i, label %_ZNK9metaspace10ArenaStats6totalsEv.exit, label %22, !llvm.loop !12

_ZNK9metaspace10ArenaStats6totalsEv.exit:         ; preds = %22
  %39 = getelementptr inbounds i8, ptr %5, i64 8
  %40 = getelementptr inbounds i8, ptr %5, i64 40
  %41 = getelementptr inbounds i8, ptr %5, i64 24
  store i32 %29, ptr %5, align 8, !alias.scope !14
  store <2 x i64> %32, ptr %39, align 8, !alias.scope !14
  store <2 x i64> %35, ptr %41, align 8, !alias.scope !14
  store i64 %38, ptr %40, align 8, !alias.scope !14
  call void @_ZNK9metaspace15InUseChunkStats8print_onEP12outputStreamm(ptr noundef nonnull align 8 dereferenceable(48) %5, ptr noundef nonnull %1, i64 noundef %2)
  %42 = load i32, ptr %7, align 8
  %43 = add nsw i32 %42, -2
  store i32 %43, ptr %7, align 8
  %44 = getelementptr inbounds i8, ptr %0, i64 720
  %45 = load i64, ptr %44, align 8
  %.not = icmp eq i64 %45, 0
  br i1 %.not, label %72, label %46

46:                                               ; preds = %_ZNK9metaspace10ArenaStats6totalsEv.exit
  tail call void @_ZN12outputStream9cr_indentEv(ptr noundef nonnull align 8 dereferenceable(56) %1) #6
  br label %.sink.split

47:                                               ; preds = %4
  tail call void @llvm.experimental.noalias.scope.decl(metadata !17)
  br label %48

48:                                               ; preds = %48, %47
  %indvars.iv.i30 = phi i64 [ 0, %47 ], [ %indvars.iv.next.i31, %48 ]
  %49 = phi i32 [ 0, %47 ], [ %55, %48 ]
  %50 = phi i64 [ 0, %47 ], [ %64, %48 ]
  %51 = phi <2 x i64> [ zeroinitializer, %47 ], [ %58, %48 ]
  %52 = phi <2 x i64> [ zeroinitializer, %47 ], [ %61, %48 ]
  %53 = getelementptr inbounds [15 x %"struct.metaspace::InUseChunkStats"], ptr %0, i64 0, i64 %indvars.iv.i30
  %54 = load i32, ptr %53, align 8, !noalias !17
  %55 = add nsw i32 %54, %49
  %56 = getelementptr inbounds i8, ptr %53, i64 8
  %57 = load <2 x i64>, ptr %56, align 8, !noalias !17
  %58 = add <2 x i64> %57, %51
  %59 = getelementptr inbounds i8, ptr %53, i64 24
  %60 = load <2 x i64>, ptr %59, align 8, !noalias !17
  %61 = add <2 x i64> %60, %52
  %62 = getelementptr inbounds i8, ptr %53, i64 40
  %63 = load i64, ptr %62, align 8, !noalias !17
  %64 = add i64 %63, %50
  %indvars.iv.next.i31 = add nuw nsw i64 %indvars.iv.i30, 1
  %exitcond.not.i32 = icmp eq i64 %indvars.iv.next.i31, 15
  br i1 %exitcond.not.i32, label %_ZNK9metaspace10ArenaStats6totalsEv.exit33, label %48, !llvm.loop !12

_ZNK9metaspace10ArenaStats6totalsEv.exit33:       ; preds = %48
  %65 = getelementptr inbounds i8, ptr %6, i64 8
  %66 = getelementptr inbounds i8, ptr %6, i64 40
  %67 = getelementptr inbounds i8, ptr %6, i64 24
  store i32 %55, ptr %6, align 8, !alias.scope !17
  store <2 x i64> %58, ptr %65, align 8, !alias.scope !17
  store <2 x i64> %61, ptr %67, align 8, !alias.scope !17
  store i64 %64, ptr %66, align 8, !alias.scope !17
  call void @_ZNK9metaspace15InUseChunkStats8print_onEP12outputStreamm(ptr noundef nonnull align 8 dereferenceable(48) %6, ptr noundef %1, i64 noundef %2)
  tail call void (ptr, ptr, ...) @_ZN12outputStream5printEPKcz(ptr noundef nonnull align 8 dereferenceable(56) %1, ptr noundef nonnull @.str.23) #6
  %68 = getelementptr inbounds i8, ptr %0, i64 720
  br label %.sink.split

.sink.split:                                      ; preds = %_ZNK9metaspace10ArenaStats6totalsEv.exit33, %46
  %.sink72 = phi ptr [ %44, %46 ], [ %68, %_ZNK9metaspace10ArenaStats6totalsEv.exit33 ]
  %69 = load i64, ptr %.sink72, align 8
  tail call void (ptr, ptr, ...) @_ZN12outputStream5printEPKcz(ptr noundef nonnull align 8 dereferenceable(56) %1, ptr noundef nonnull @.str.22, i64 noundef %69) #6
  %70 = getelementptr inbounds i8, ptr %0, i64 728
  %71 = load i64, ptr %70, align 8
  tail call void @_ZN9metaspace18print_scaled_wordsEP12outputStreammmi(ptr noundef nonnull %1, i64 noundef %71, i64 noundef %2, i32 noundef -1) #6
  br label %72

72:                                               ; preds = %.sink.split, %_ZNK9metaspace10ArenaStats6totalsEv.exit
  %73 = load i32, ptr %7, align 8
  %74 = add nsw i32 %73, -2
  store i32 %74, ptr %7, align 8
  ret void
}